(dp0
S'homology'
p1
I4
sS'abelian'
p2
I3
sS'functors'
p3
I2
sS'homological'
p4
I5
sS'signboard'
p5
I2
sS'familiarised'
p6
I4
sS'pro-finite'
p7
I3
sS'finiteness'
p8
I3
sS'bredon'
p9
I2
sS'organising'
p10
I4
sS'whitecaps'
p11
I2
sS'pointwise'
p12
I2
sS'homotopy'
p13
I4
sS'functor'
p14
I2
sS'quotients'
p15
I2
s.